; Function Attrs: nofree nounwind sspstrong uwtable
define dso_local i32 @main() local_unnamed_addr #0 {
  %1 = alloca i32, align 4
  %2 = alloca [100 x [100 x i32]], align 16
  %3 = alloca i32, align 4
  %4 = alloca i32, align 4
  %5 = bitcast i32* %1 to i8*
  call void @llvm.lifetime.start.p0i8(i64 4, i8* nonnull %5) #4
  %6 = bitcast [100 x [100 x i32]]* %2 to i8*
  call void @llvm.lifetime.start.p0i8(i64 40000, i8* nonnull %6) #4
  %7 = call i32 (i8*, ...) @__isoc99_scanf(i8* getelementptr inbounds ([3 x i8], [3 x i8]* @.str, i64 0, i64 0), i32* nonnull %1)
  %8 = bitcast i32* %3 to i8*
  %9 = bitcast i32* %4 to i8*
  %10 = load i32, i32* %1, align 4, !tbaa !5
  %11 = icmp sgt i32 %10, 0
  br i1 %11, label %13, label %12

12:                                               ; preds = %294, %0
  call void @llvm.lifetime.end.p0i8(i64 40000, i8* nonnull %6) #4
  call void @llvm.lifetime.end.p0i8(i64 4, i8* nonnull %5) #4
  ret i32 0

13:                                               ; preds = %0, %294
  %14 = phi i32 [ %297, %294 ], [ 0, %0 ]
  call void @llvm.lifetime.start.p0i8(i64 4, i8* nonnull %8) #4
  call void @llvm.lifetime.start.p0i8(i64 4, i8* nonnull %9) #4
  %15 = call i32 (i8*, ...) @__isoc99_scanf(i8* getelementptr inbounds ([6 x i8], [6 x i8]* @.str.1, i64 0, i64 0), i32* nonnull %3, i32* nonnull %4)
  %16 = load i32, i32* %3, align 4, !tbaa !5
  %17 = icmp sgt i32 %16, 0
  %18 = load i32, i32* %4, align 4
  %19 = icmp sgt i32 %18, 0
  %20 = select i1 %17, i1 %19, i1 false
  br i1 %20, label %21, label %294

21:                                               ; preds = %13, %146
  %22 = phi i32 [ %147, %146 ], [ %16, %13 ]
  %23 = phi i32 [ %148, %146 ], [ %18, %13 ]
  %24 = phi i64 [ %149, %146 ], [ 0, %13 ]
  %25 = icmp sgt i32 %23, 0
  br i1 %25, label %152, label %146

26:                                               ; preds = %146
  %27 = icmp sgt i32 %147, 2
  %28 = icmp sgt i32 %148, 2
  %29 = select i1 %27, i1 %28, i1 false
  br i1 %29, label %138, label %30

30:                                               ; preds = %26
  %31 = icmp sgt i32 %147, 0
  %32 = icmp sgt i32 %148, 0
  %33 = select i1 %31, i1 %32, i1 false
  br i1 %33, label %34, label %294

34:                                               ; preds = %30
  %35 = zext i32 %147 to i64
  %36 = zext i32 %148 to i64
  %37 = and i64 %36, 4294967288
  %38 = add nsw i64 %37, -8
  %39 = lshr exact i64 %38, 3
  %40 = add nuw nsw i64 %39, 1
  %41 = icmp ult i32 %148, 8
  %42 = and i64 %36, 4294967288
  %43 = and i64 %40, 3
  %44 = icmp ult i64 %38, 24
  %45 = and i64 %40, 4611686018427387900
  %46 = icmp eq i64 %43, 0
  %47 = icmp eq i64 %42, %36
  br label %48

48:                                               ; preds = %34, %134
  %49 = phi i64 [ 0, %34 ], [ %136, %134 ]
  %50 = phi i32 [ 0, %34 ], [ %135, %134 ]
  br i1 %41, label %123, label %51

51:                                               ; preds = %48
  %52 = insertelement <4 x i32> <i32 poison, i32 0, i32 0, i32 0>, i32 %50, i32 0
  br i1 %44, label %96, label %53

53:                                               ; preds = %51, %53
  %54 = phi i64 [ %93, %53 ], [ 0, %51 ]
  %55 = phi <4 x i32> [ %91, %53 ], [ %52, %51 ]
  %56 = phi <4 x i32> [ %92, %53 ], [ zeroinitializer, %51 ]
  %57 = phi i64 [ %94, %53 ], [ %45, %51 ]
  %58 = getelementptr inbounds [100 x [100 x i32]], [100 x [100 x i32]]* %2, i64 0, i64 %49, i64 %54
  %59 = bitcast i32* %58 to <4 x i32>*
  %60 = load <4 x i32>, <4 x i32>* %59, align 16, !tbaa !5
  %61 = getelementptr inbounds i32, i32* %58, i64 4
  %62 = bitcast i32* %61 to <4 x i32>*
  %63 = load <4 x i32>, <4 x i32>* %62, align 16, !tbaa !5
  %64 = add <4 x i32> %60, %55
  %65 = add <4 x i32> %63, %56
  %66 = or i64 %54, 8
  %67 = getelementptr inbounds [100 x [100 x i32]], [100 x [100 x i32]]* %2, i64 0, i64 %49, i64 %66
  %68 = bitcast i32* %67 to <4 x i32>*
  %69 = load <4 x i32>, <4 x i32>* %68, align 16, !tbaa !5
  %70 = getelementptr inbounds i32, i32* %67, i64 4
  %71 = bitcast i32* %70 to <4 x i32>*
  %72 = load <4 x i32>, <4 x i32>* %71, align 16, !tbaa !5
  %73 = add <4 x i32> %69, %64
  %74 = add <4 x i32> %72, %65
  %75 = or i64 %54, 16
  %76 = getelementptr inbounds [100 x [100 x i32]], [100 x [100 x i32]]* %2, i64 0, i64 %49, i64 %75
  %77 = bitcast i32* %76 to <4 x i32>*
  %78 = load <4 x i32>, <4 x i32>* %77, align 16, !tbaa !5
  %79 = getelementptr inbounds i32, i32* %76, i64 4
  %80 = bitcast i32* %79 to <4 x i32>*
  %81 = load <4 x i32>, <4 x i32>* %80, align 16, !tbaa !5
  %82 = add <4 x i32> %78, %73
  %83 = add <4 x i32> %81, %74
  %84 = or i64 %54, 24
  %85 = getelementptr inbounds [100 x [100 x i32]], [100 x [100 x i32]]* %2, i64 0, i64 %49, i64 %84
  %86 = bitcast i32* %85 to <4 x i32>*
  %87 = load <4 x i32>, <4 x i32>* %86, align 16, !tbaa !5
  %88 = getelementptr inbounds i32, i32* %85, i64 4
  %89 = bitcast i32* %88 to <4 x i32>*
  %90 = load <4 x i32>, <4 x i32>* %89, align 16, !tbaa !5
  %91 = add <4 x i32> %87, %82
  %92 = add <4 x i32> %90, %83
  %93 = add nuw i64 %54, 32
  %94 = add i64 %57, -4
  %95 = icmp eq i64 %94, 0
  br i1 %95, label %96, label %53, !llvm.loop !9

96:                                               ; preds = %53, %51
  %97 = phi <4 x i32> [ undef, %51 ], [ %91, %53 ]
  %98 = phi <4 x i32> [ undef, %51 ], [ %92, %53 ]
  %99 = phi i64 [ 0, %51 ], [ %93, %53 ]
  %100 = phi <4 x i32> [ %52, %51 ], [ %91, %53 ]
  %101 = phi <4 x i32> [ zeroinitializer, %51 ], [ %92, %53 ]
  br i1 %46, label %118, label %102

102:                                              ; preds = %96, %102
  %103 = phi i64 [ %115, %102 ], [ %99, %96 ]
  %104 = phi <4 x i32> [ %113, %102 ], [ %100, %96 ]
  %105 = phi <4 x i32> [ %114, %102 ], [ %101, %96 ]
  %106 = phi i64 [ %116, %102 ], [ %43, %96 ]
  %107 = getelementptr inbounds [100 x [100 x i32]], [100 x [100 x i32]]* %2, i64 0, i64 %49, i64 %103
  %108 = bitcast i32* %107 to <4 x i32>*
  %109 = load <4 x i32>, <4 x i32>* %108, align 16, !tbaa !5
  %110 = getelementptr inbounds i32, i32* %107, i64 4
  %111 = bitcast i32* %110 to <4 x i32>*
  %112 = load <4 x i32>, <4 x i32>* %111, align 16, !tbaa !5
  %113 = add <4 x i32> %109, %104
  %114 = add <4 x i32> %112, %105
  %115 = add nuw i64 %103, 8
  %116 = add i64 %106, -1
  %117 = icmp eq i64 %116, 0
  br i1 %117, label %118, label %102, !llvm.loop !12

118:                                              ; preds = %102, %96
  %119 = phi <4 x i32> [ %97, %96 ], [ %113, %102 ]
  %120 = phi <4 x i32> [ %98, %96 ], [ %114, %102 ]
  %121 = add <4 x i32> %120, %119
  %122 = call i32 @llvm.vector.reduce.add.v4i32(<4 x i32> %121)
  br i1 %47, label %134, label %123

123:                                              ; preds = %48, %118
  %124 = phi i64 [ 0, %48 ], [ %42, %118 ]
  %125 = phi i32 [ %50, %48 ], [ %122, %118 ]
  br label %126

126:                                              ; preds = %123, %126
  %127 = phi i64 [ %132, %126 ], [ %124, %123 ]
  %128 = phi i32 [ %131, %126 ], [ %125, %123 ]
  %129 = getelementptr inbounds [100 x [100 x i32]], [100 x [100 x i32]]* %2, i64 0, i64 %49, i64 %127
  %130 = load i32, i32* %129, align 4, !tbaa !5
  %131 = add nsw i32 %130, %128
  %132 = add nuw nsw i64 %127, 1
  %133 = icmp eq i64 %132, %36
  br i1 %133, label %134, label %126, !llvm.loop !14

134:                                              ; preds = %126, %118
  %135 = phi i32 [ %122, %118 ], [ %131, %126 ]
  %136 = add nuw nsw i64 %49, 1
  %137 = icmp eq i64 %136, %35
  br i1 %137, label %294, label %48, !llvm.loop !16

138:                                              ; preds = %26
  %139 = add nsw i32 %148, -1
  %140 = zext i32 %139 to i64
  %141 = zext i32 %147 to i64
  %142 = and i64 %141, 1
  %143 = and i64 %141, 4294967294
  br label %263

144:                                              ; preds = %152
  %145 = load i32, i32* %3, align 4, !tbaa !5
  br label %146

146:                                              ; preds = %144, %21
  %147 = phi i32 [ %145, %144 ], [ %22, %21 ]
  %148 = phi i32 [ %157, %144 ], [ %23, %21 ]
  %149 = add nuw nsw i64 %24, 1
  %150 = sext i32 %147 to i64
  %151 = icmp slt i64 %149, %150
  br i1 %151, label %21, label %26, !llvm.loop !17

152:                                              ; preds = %21, %152
  %153 = phi i64 [ %156, %152 ], [ 0, %21 ]
  %154 = getelementptr inbounds [100 x [100 x i32]], [100 x [100 x i32]]* %2, i64 0, i64 %24, i64 %153
  %155 = call i32 (i8*, ...) @__isoc99_scanf(i8* getelementptr inbounds ([3 x i8], [3 x i8]* @.str, i64 0, i64 0), i32* nonnull %154)
  %156 = add nuw nsw i64 %153, 1
  %157 = load i32, i32* %4, align 4, !tbaa !5
  %158 = sext i32 %157 to i64
  %159 = icmp slt i64 %156, %158
  br i1 %159, label %152, label %144, !llvm.loop !19

160:                                              ; preds = %263
  %161 = icmp eq i64 %142, 0
  br i1 %161, label %169, label %162

162:                                              ; preds = %160
  %163 = getelementptr inbounds [100 x [100 x i32]], [100 x [100 x i32]]* %2, i64 0, i64 %280, i64 0
  %164 = load i32, i32* %163, align 16, !tbaa !5
  %165 = add i32 %164, %279
  %166 = getelementptr inbounds [100 x [100 x i32]], [100 x [100 x i32]]* %2, i64 0, i64 %280, i64 %140
  %167 = load i32, i32* %166, align 4, !tbaa !5
  %168 = add i32 %165, %167
  br label %169

169:                                              ; preds = %160, %162
  %170 = phi i32 [ %279, %160 ], [ %168, %162 ]
  %171 = add nsw i32 %147, -1
  %172 = sext i32 %171 to i64
  %173 = zext i32 %139 to i64
  %174 = add nsw i64 %173, -1
  %175 = icmp ult i64 %174, 8
  br i1 %175, label %260, label %176

176:                                              ; preds = %169
  %177 = and i64 %174, -8
  %178 = or i64 %177, 1
  %179 = insertelement <4 x i32> <i32 poison, i32 0, i32 0, i32 0>, i32 %170, i32 0
  %180 = add nsw i64 %177, -8
  %181 = lshr exact i64 %180, 3
  %182 = add nuw nsw i64 %181, 1
  %183 = and i64 %182, 1
  %184 = icmp eq i64 %180, 0
  br i1 %184, label %229, label %185

185:                                              ; preds = %176
  %186 = and i64 %182, 4611686018427387902
  br label %187

187:                                              ; preds = %187, %185
  %188 = phi i64 [ 0, %185 ], [ %226, %187 ]
  %189 = phi <4 x i32> [ %179, %185 ], [ %224, %187 ]
  %190 = phi <4 x i32> [ zeroinitializer, %185 ], [ %225, %187 ]
  %191 = phi i64 [ %186, %185 ], [ %227, %187 ]
  %192 = or i64 %188, 1
  %193 = getelementptr inbounds [100 x [100 x i32]], [100 x [100 x i32]]* %2, i64 0, i64 0, i64 %192
  %194 = bitcast i32* %193 to <4 x i32>*
  %195 = load <4 x i32>, <4 x i32>* %194, align 4, !tbaa !5
  %196 = getelementptr inbounds i32, i32* %193, i64 4
  %197 = bitcast i32* %196 to <4 x i32>*
  %198 = load <4 x i32>, <4 x i32>* %197, align 4, !tbaa !5
  %199 = getelementptr inbounds [100 x [100 x i32]], [100 x [100 x i32]]* %2, i64 0, i64 %172, i64 %192
  %200 = bitcast i32* %199 to <4 x i32>*
  %201 = load <4 x i32>, <4 x i32>* %200, align 4, !tbaa !5
  %202 = getelementptr inbounds i32, i32* %199, i64 4
  %203 = bitcast i32* %202 to <4 x i32>*
  %204 = load <4 x i32>, <4 x i32>* %203, align 4, !tbaa !5
  %205 = add <4 x i32> %195, %189
  %206 = add <4 x i32> %198, %190
  %207 = add <4 x i32> %205, %201
  %208 = add <4 x i32> %206, %204
  %209 = or i64 %188, 9
  %210 = getelementptr inbounds [100 x [100 x i32]], [100 x [100 x i32]]* %2, i64 0, i64 0, i64 %209
  %211 = bitcast i32* %210 to <4 x i32>*
  %212 = load <4 x i32>, <4 x i32>* %211, align 4, !tbaa !5
  %213 = getelementptr inbounds i32, i32* %210, i64 4
  %214 = bitcast i32* %213 to <4 x i32>*
  %215 = load <4 x i32>, <4 x i32>* %214, align 4, !tbaa !5
  %216 = getelementptr inbounds [100 x [100 x i32]], [100 x [100 x i32]]* %2, i64 0, i64 %172, i64 %209
  %217 = bitcast i32* %216 to <4 x i32>*
  %218 = load <4 x i32>, <4 x i32>* %217, align 4, !tbaa !5
  %219 = getelementptr inbounds i32, i32* %216, i64 4
  %220 = bitcast i32* %219 to <4 x i32>*
  %221 = load <4 x i32>, <4 x i32>* %220, align 4, !tbaa !5
  %222 = add <4 x i32> %212, %207
  %223 = add <4 x i32> %215, %208
  %224 = add <4 x i32> %222, %218
  %225 = add <4 x i32> %223, %221
  %226 = add nuw i64 %188, 16
  %227 = add i64 %191, -2
  %228 = icmp eq i64 %227, 0
  br i1 %228, label %229, label %187, !llvm.loop !20

229:                                              ; preds = %187, %176
  %230 = phi <4 x i32> [ undef, %176 ], [ %224, %187 ]
  %231 = phi <4 x i32> [ undef, %176 ], [ %225, %187 ]
  %232 = phi i64 [ 0, %176 ], [ %226, %187 ]
  %233 = phi <4 x i32> [ %179, %176 ], [ %224, %187 ]
  %234 = phi <4 x i32> [ zeroinitializer, %176 ], [ %225, %187 ]
  %235 = icmp eq i64 %183, 0
  br i1 %235, label %254, label %236

236:                                              ; preds = %229
  %237 = or i64 %232, 1
  %238 = getelementptr inbounds [100 x [100 x i32]], [100 x [100 x i32]]* %2, i64 0, i64 0, i64 %237
  %239 = getelementptr inbounds [100 x [100 x i32]], [100 x [100 x i32]]* %2, i64 0, i64 %172, i64 %237
  %240 = getelementptr inbounds i32, i32* %238, i64 4
  %241 = bitcast i32* %240 to <4 x i32>*
  %242 = load <4 x i32>, <4 x i32>* %241, align 4, !tbaa !5
  %243 = add <4 x i32> %242, %234
  %244 = getelementptr inbounds i32, i32* %239, i64 4
  %245 = bitcast i32* %244 to <4 x i32>*
  %246 = load <4 x i32>, <4 x i32>* %245, align 4, !tbaa !5
  %247 = add <4 x i32> %243, %246
  %248 = bitcast i32* %238 to <4 x i32>*
  %249 = load <4 x i32>, <4 x i32>* %248, align 4, !tbaa !5
  %250 = add <4 x i32> %249, %233
  %251 = bitcast i32* %239 to <4 x i32>*
  %252 = load <4 x i32>, <4 x i32>* %251, align 4, !tbaa !5
  %253 = add <4 x i32> %250, %252
  br label %254

254:                                              ; preds = %229, %236
  %255 = phi <4 x i32> [ %230, %229 ], [ %253, %236 ]
  %256 = phi <4 x i32> [ %231, %229 ], [ %247, %236 ]
  %257 = add <4 x i32> %256, %255
  %258 = call i32 @llvm.vector.reduce.add.v4i32(<4 x i32> %257)
  %259 = icmp eq i64 %174, %177
  br i1 %259, label %294, label %260

260:                                              ; preds = %169, %254
  %261 = phi i64 [ 1, %169 ], [ %178, %254 ]
  %262 = phi i32 [ %170, %169 ], [ %258, %254 ]
  br label %283

263:                                              ; preds = %263, %138
  %264 = phi i64 [ 0, %138 ], [ %280, %263 ]
  %265 = phi i32 [ 0, %138 ], [ %279, %263 ]
  %266 = phi i64 [ %143, %138 ], [ %281, %263 ]
  %267 = getelementptr inbounds [100 x [100 x i32]], [100 x [100 x i32]]* %2, i64 0, i64 %264, i64 0
  %268 = load i32, i32* %267, align 16, !tbaa !5
  %269 = getelementptr inbounds [100 x [100 x i32]], [100 x [100 x i32]]* %2, i64 0, i64 %264, i64 %140
  %270 = load i32, i32* %269, align 4, !tbaa !5
  %271 = add i32 %268, %265
  %272 = add i32 %271, %270
  %273 = or i64 %264, 1
  %274 = getelementptr inbounds [100 x [100 x i32]], [100 x [100 x i32]]* %2, i64 0, i64 %273, i64 0
  %275 = load i32, i32* %274, align 16, !tbaa !5
  %276 = getelementptr inbounds [100 x [100 x i32]], [100 x [100 x i32]]* %2, i64 0, i64 %273, i64 %140
  %277 = load i32, i32* %276, align 4, !tbaa !5
  %278 = add i32 %275, %272
  %279 = add i32 %278, %277
  %280 = add nuw nsw i64 %264, 2
  %281 = add i64 %266, -2
  %282 = icmp eq i64 %281, 0
  br i1 %282, label %160, label %263, !llvm.loop !21

283:                                              ; preds = %260, %283
  %284 = phi i64 [ %292, %283 ], [ %261, %260 ]
  %285 = phi i32 [ %291, %283 ], [ %262, %260 ]
  %286 = getelementptr inbounds [100 x [100 x i32]], [100 x [100 x i32]]* %2, i64 0, i64 0, i64 %284
  %287 = load i32, i32* %286, align 4, !tbaa !5
  %288 = getelementptr inbounds [100 x [100 x i32]], [100 x [100 x i32]]* %2, i64 0, i64 %172, i64 %284
  %289 = load i32, i32* %288, align 4, !tbaa !5
  %290 = add i32 %287, %285
  %291 = add i32 %290, %289
  %292 = add nuw nsw i64 %284, 1
  %293 = icmp eq i64 %292, %173
  br i1 %293, label %294, label %283, !llvm.loop !22

294:                                              ; preds = %134, %283, %254, %13, %30
  %295 = phi i32 [ 0, %30 ], [ 0, %13 ], [ %258, %254 ], [ %291, %283 ], [ %135, %134 ]
  %296 = call i32 (i8*, ...) @printf(i8* nonnull dereferenceable(1) getelementptr inbounds ([4 x i8], [4 x i8]* @.str.2, i64 0, i64 0), i32 %295)
  call void @llvm.lifetime.end.p0i8(i64 4, i8* nonnull %9) #4
  call void @llvm.lifetime.end.p0i8(i64 4, i8* nonnull %8) #4
  %297 = add nuw nsw i32 %14, 1
  %298 = load i32, i32* %1, align 4, !tbaa !5
  %299 = icmp slt i32 %297, %298
  br i1 %299, label %13, label %12, !llvm.loop !23
}